; Function Attrs: mustprogress noreturn uwtable
define dso_local void @_Z14luaL_argerrorLP9lua_StateiPKc(ptr noundef %0, i32 noundef %1, ptr noundef %2) local_unnamed_addr #0 {
  %4 = getelementptr inbounds i8, ptr %0, i64 32
  %5 = load ptr, ptr %4, align 8
  %6 = getelementptr inbounds i8, ptr %0, i64 64
  %7 = load ptr, ptr %6, align 8
  %8 = icmp ugt ptr %5, %7
  br i1 %8, label %9, label %select.unfold

9:                                                ; preds = %3
  %10 = getelementptr inbounds i8, ptr %5, i64 8
  %11 = load ptr, ptr %10, align 8
  %12 = load ptr, ptr %11, align 8
  %.not.i = icmp eq ptr %12, null
  br i1 %.not.i, label %select.unfold, label %13

13:                                               ; preds = %9
  %14 = getelementptr inbounds i8, ptr %12, i64 3
  %15 = load i8, ptr %14, align 1
  %.not16.i = icmp eq i8 %15, 0
  br i1 %.not16.i, label %select.unfold, label %16

16:                                               ; preds = %13
  %17 = getelementptr inbounds i8, ptr %12, i64 40
  %18 = load ptr, ptr %17, align 8
  %.not17.i = icmp eq ptr %18, null
  br i1 %.not17.i, label %select.unfold, label %19

19:                                               ; preds = %16
  %20 = tail call i32 @strcmp(ptr noundef nonnull dereferenceable(1) %18, ptr noundef nonnull dereferenceable(11) @.str.21) #10
  %21 = icmp eq i32 %20, 0
  br i1 %21, label %22, label %_ZL12currfuncnameP9lua_State.exit

22:                                               ; preds = %19
  %23 = getelementptr inbounds i8, ptr %0, i64 112
  %24 = load ptr, ptr %23, align 8
  %.not18.i = icmp eq ptr %24, null
  %25 = getelementptr inbounds i8, ptr %24, i64 24
  br i1 %.not18.i, label %select.unfold, label %_ZL12currfuncnameP9lua_State.exit

_ZL12currfuncnameP9lua_State.exit:                ; preds = %19, %22
  %.0.i = phi ptr [ %25, %22 ], [ %18, %19 ]
  tail call void (ptr, ptr, ...) @_Z11luaL_errorLP9lua_StatePKcz(ptr noundef nonnull %0, ptr noundef nonnull @.str, i32 noundef %1, ptr noundef nonnull %.0.i, ptr noundef %2) #11
  unreachable

select.unfold:                                    ; preds = %22, %16, %13, %9, %3
  tail call void (ptr, ptr, ...) @_Z11luaL_errorLP9lua_StatePKcz(ptr noundef nonnull %0, ptr noundef nonnull @.str.1, i32 noundef %1, ptr noundef %2) #11
  unreachable
}